; Function Attrs: null_pointer_is_valid sspstrong uwtable
define internal i32 @dissect_p1_MTAName(i1 noundef zeroext %0, ptr noundef %1, i32 noundef %2, ptr noundef %3, ptr noundef %4, i32 noundef %5) #0 {
  %7 = alloca ptr, align 8
  call void @llvm.lifetime.start.p0(i64 8, ptr nonnull %7) #5
  store ptr null, ptr %7, align 8
  %8 = getelementptr inbounds nuw i8, ptr %3, i64 120
  %9 = getelementptr inbounds nuw i8, ptr %3, i64 136
  %10 = load ptr, ptr %9, align 8
  %11 = call i32 @dissect_ber_constrained_restricted_string(i1 noundef zeroext %0, i32 noundef 22, ptr noundef %3, ptr noundef %4, ptr noundef %1, i32 noundef %2, i32 noundef 1, i32 noundef 32, i32 noundef %5, ptr noundef nonnull %7)
  %.not = icmp eq ptr %10, null
  br i1 %.not, label %24, label %12

12:                                               ; preds = %6
  %13 = load i8, ptr %10, align 8, !range !6, !noundef !7
  %14 = trunc nuw i8 %13 to i1
  br i1 %14, label %15, label %24

15:                                               ; preds = %12
  %16 = load ptr, ptr %8, align 8
  %17 = getelementptr inbounds nuw i8, ptr %3, i64 16
  %18 = load ptr, ptr %17, align 8
  %19 = getelementptr inbounds nuw i8, ptr %18, i64 408
  %20 = load ptr, ptr %19, align 8
  %21 = load ptr, ptr %7, align 8
  %22 = call i32 @tvb_reported_length(ptr noundef %21)
  %23 = call ptr @tvb_format_text(ptr noundef %20, ptr noundef %21, i32 noundef 0, i32 noundef %22)
  call void (ptr, ptr, ...) @proto_item_append_text(ptr noundef %16, ptr noundef nonnull @.str.3, ptr noundef %23)
  br label %35

24:                                               ; preds = %12, %6
  %25 = load ptr, ptr %7, align 8
  %.not14 = icmp eq ptr %25, null
  br i1 %.not14, label %35, label %26

26:                                               ; preds = %24
  %27 = getelementptr inbounds nuw i8, ptr %3, i64 16
  %28 = load ptr, ptr %27, align 8
  %29 = getelementptr inbounds nuw i8, ptr %28, i64 8
  %30 = load ptr, ptr %29, align 8
  %31 = getelementptr inbounds nuw i8, ptr %28, i64 408
  %32 = load ptr, ptr %31, align 8
  %33 = call i32 @tvb_reported_length(ptr noundef nonnull %25)
  %34 = call ptr @tvb_format_text(ptr noundef %32, ptr noundef nonnull %25, i32 noundef 0, i32 noundef %33)
  call void (ptr, i32, ptr, ...) @col_append_fstr(ptr noundef %30, i32 noundef 25, ptr noundef nonnull @.str.3, ptr noundef %34)
  br label %35

35:                                               ; preds = %24, %26, %15
  call void @llvm.lifetime.end.p0(i64 8, ptr nonnull %7) #5
  ret i32 %11
}